; Function Attrs: mustprogress nofree norecurse nosync nounwind willreturn memory(argmem: read) uwtable
define hidden noundef nonnull align 8 dereferenceable(8) ptr @_ZNK4cvc58internal4expr9NodeValue8getConstINS0_13FloatingPointEEERKT_v(ptr noundef nonnull readonly align 8 captures(ret: address, provenance) dereferenceable(24) %0) local_unnamed_addr #7 align 2 {
  %2 = getelementptr inbounds nuw i8, ptr %0, i64 8
  %3 = load i64, ptr %2, align 8
  %4 = and i64 %3, 288230371856744448
  %5 = icmp eq i64 %4, 0
  %6 = getelementptr inbounds nuw i8, ptr %0, i64 24
  br i1 %5, label %9, label %7

7:                                                ; preds = %1
  %8 = load ptr, ptr %6, align 8, !tbaa !7
  br label %9

9:                                                ; preds = %1, %7
  %10 = phi ptr [ %8, %7 ], [ %6, %1 ]
  ret ptr %10
}